target datalayout = "e-m:e-p270:32:32-p271:32:32-p272:64:64-i64:64-i128:128-f80:128-n8:16:32:64-S128"
target triple = "x86_64-pc-linux-gnu"

%struct.AVProbeData = type { ptr, ptr, i32, ptr }
%struct.AVFormatContext = type { ptr, ptr, ptr, ptr, ptr, i32, i32, ptr, i32, ptr, i32, ptr, ptr, i64, i64, i64, i32, i32, i32, i64, i64, ptr, i32, i32, ptr, i32, i32, i32, i32, ptr, i64, i32, i32, %struct.AVIOInterruptCB, i32, i32, i32, i32, i64, i32, i32, i32, i32, i32, i32, i32, i32, i32, i32, i32, i32, i64, i32, i32, i32, i32, i32, ptr, ptr, ptr, ptr, i32, ptr, ptr, ptr, ptr, i32, ptr, ptr, i64, ptr, ptr, ptr, i64 }
%struct.AVIOInterruptCB = type { ptr, ptr }
%struct.VideoDemuxData = type { ptr, i32, i32, i32, i64, i32, i32, i32, [1024 x i8], ptr, i32, i32, %struct.AVRational, i32, i32, i32, %struct.glob_t, i32, i32, i32, i32, i32 }
%struct.AVRational = type { i32, i32 }
%struct.glob_t = type { i64, ptr, i64, i32, ptr, ptr, ptr, ptr, ptr }
%struct.FFStream = type { %struct.AVStream, ptr, i32, ptr, i32, ptr, i32, %struct.anon, i32, i32, %struct.FFFrac, ptr, ptr, i32, i32, i64, i64, i32, i32, i32, i64, i64, i64, i32, i64, i64, i64, i32, i32, [17 x i64], [17 x i8], [17 x i64], i64, i8, i8, %struct.AVRational, %struct.AVProbeData, ptr, i64, i32, i32, i32, ptr, i32, i32, i64, i64, ptr, %struct.AVRational }
%struct.AVStream = type { ptr, i32, i32, ptr, ptr, %struct.AVRational, i64, i64, i64, i32, i32, %struct.AVRational, ptr, %struct.AVRational, %struct.AVPacket, i32, %struct.AVRational, i32 }
%struct.AVPacket = type { ptr, i64, i64, ptr, i32, i32, i32, ptr, i32, i64, i64, ptr, ptr, %struct.AVRational }
%struct.anon = type { ptr, i32 }
%struct.FFFrac = type { i64, i64, i64 }
%struct.AVIndexEntry = type { i64, i64, i32, i32 }

; Function Attrs: alwaysinline nounwind uwtable
define internal ptr @ffstream(ptr noundef %0) #3 {
  %2 = alloca ptr, align 8
  store ptr %0, ptr %2, align 8, !tbaa !30
  %3 = load ptr, ptr %2, align 8, !tbaa !30
  ret ptr %3
}

; Function Attrs: nounwind uwtable
define internal i32 @img_read_seek(ptr noundef %0, i32 noundef %1, i64 noundef %2, i32 noundef %3) #0 {
  %5 = alloca i32, align 4
  %6 = alloca ptr, align 8
  %7 = alloca i32, align 4
  %8 = alloca i64, align 8
  %9 = alloca i32, align 4
  %10 = alloca ptr, align 8
  %11 = alloca ptr, align 8
  %12 = alloca i32, align 4
  %13 = alloca i32, align 4
  store ptr %0, ptr %6, align 8, !tbaa !4
  store i32 %1, ptr %7, align 4, !tbaa !28
  store i64 %2, ptr %8, align 8, !tbaa !106
  store i32 %3, ptr %9, align 4, !tbaa !28
  call void @llvm.lifetime.start.p0(i64 8, ptr %10) #12
  %14 = load ptr, ptr %6, align 8, !tbaa !4
  %15 = getelementptr inbounds nuw %struct.AVFormatContext, ptr %14, i32 0, i32 3
  %16 = load ptr, ptr %15, align 8, !tbaa !9
  store ptr %16, ptr %10, align 8, !tbaa !26
  call void @llvm.lifetime.start.p0(i64 8, ptr %11) #12
  %17 = load ptr, ptr %6, align 8, !tbaa !4
  %18 = getelementptr inbounds nuw %struct.AVFormatContext, ptr %17, i32 0, i32 7
  %19 = load ptr, ptr %18, align 8, !tbaa !114
  %20 = getelementptr inbounds ptr, ptr %19, i64 0
  %21 = load ptr, ptr %20, align 8, !tbaa !30
  store ptr %21, ptr %11, align 8, !tbaa !30
  %22 = load ptr, ptr %10, align 8, !tbaa !26
  %23 = getelementptr inbounds nuw %struct.VideoDemuxData, ptr %22, i32 0, i32 20
  %24 = load i32, ptr %23, align 4, !tbaa !62
  %25 = icmp ne i32 %24, 0
  br i1 %25, label %26, label %48

26:                                               ; preds = %4
  call void @llvm.lifetime.start.p0(i64 4, ptr %12) #12
  %27 = load ptr, ptr %11, align 8, !tbaa !30
  %28 = load i64, ptr %8, align 8, !tbaa !106
  %29 = load i32, ptr %9, align 4, !tbaa !28
  %30 = call i32 @av_index_search_timestamp(ptr noundef %27, i64 noundef %28, i32 noundef %29)
  store i32 %30, ptr %12, align 4, !tbaa !28
  %31 = load i32, ptr %12, align 4, !tbaa !28
  %32 = icmp slt i32 %31, 0
  br i1 %32, label %33, label %34

33:                                               ; preds = %26
  store i32 -1, ptr %5, align 4
  store i32 1, ptr %13, align 4
  br label %47

34:                                               ; preds = %26
  %35 = load ptr, ptr %11, align 8, !tbaa !30
  %36 = call ptr @ffstream(ptr noundef %35)
  %37 = getelementptr inbounds nuw %struct.FFStream, ptr %36, i32 0, i32 12
  %38 = load ptr, ptr %37, align 8, !tbaa !141
  %39 = load i32, ptr %12, align 4, !tbaa !28
  %40 = sext i32 %39 to i64
  %41 = getelementptr inbounds %struct.AVIndexEntry, ptr %38, i64 %40
  %42 = getelementptr inbounds nuw %struct.AVIndexEntry, ptr %41, i32 0, i32 0
  %43 = load i64, ptr %42, align 8, !tbaa !142
  %44 = trunc i64 %43 to i32
  %45 = load ptr, ptr %10, align 8, !tbaa !26
  %46 = getelementptr inbounds nuw %struct.VideoDemuxData, ptr %45, i32 0, i32 3
  store i32 %44, ptr %46, align 8, !tbaa !38
  store i32 0, ptr %5, align 4
  store i32 1, ptr %13, align 4
  br label %47

47:                                               ; preds = %34, %33
  call void @llvm.lifetime.end.p0(i64 4, ptr %12) #12
  br label %91

48:                                               ; preds = %4
  %49 = load i64, ptr %8, align 8, !tbaa !106
  %50 = icmp slt i64 %49, 0
  br i1 %50, label %67, label %51

51:                                               ; preds = %48
  %52 = load ptr, ptr %10, align 8, !tbaa !26
  %53 = getelementptr inbounds nuw %struct.VideoDemuxData, ptr %52, i32 0, i32 13
  %54 = load i32, ptr %53, align 8, !tbaa !116
  %55 = icmp ne i32 %54, 0
  br i1 %55, label %68, label %56

56:                                               ; preds = %51
  %57 = load i64, ptr %8, align 8, !tbaa !106
  %58 = load ptr, ptr %10, align 8, !tbaa !26
  %59 = getelementptr inbounds nuw %struct.VideoDemuxData, ptr %58, i32 0, i32 2
  %60 = load i32, ptr %59, align 4, !tbaa !84
  %61 = load ptr, ptr %10, align 8, !tbaa !26
  %62 = getelementptr inbounds nuw %struct.VideoDemuxData, ptr %61, i32 0, i32 1
  %63 = load i32, ptr %62, align 8, !tbaa !83
  %64 = sub nsw i32 %60, %63
  %65 = sext i32 %64 to i64
  %66 = icmp sgt i64 %57, %65
  br i1 %66, label %67, label %68

67:                                               ; preds = %56, %48
  store i32 -1, ptr %5, align 4
  store i32 1, ptr %13, align 4
  br label %91

68:                                               ; preds = %56, %51
  %69 = load i64, ptr %8, align 8, !tbaa !106
  %70 = load ptr, ptr %10, align 8, !tbaa !26
  %71 = getelementptr inbounds nuw %struct.VideoDemuxData, ptr %70, i32 0, i32 2
  %72 = load i32, ptr %71, align 4, !tbaa !84
  %73 = load ptr, ptr %10, align 8, !tbaa !26
  %74 = getelementptr inbounds nuw %struct.VideoDemuxData, ptr %73, i32 0, i32 1
  %75 = load i32, ptr %74, align 8, !tbaa !83
  %76 = sub nsw i32 %72, %75
  %77 = add nsw i32 %76, 1
  %78 = sext i32 %77 to i64
  %79 = srem i64 %69, %78
  %80 = load ptr, ptr %10, align 8, !tbaa !26
  %81 = getelementptr inbounds nuw %struct.VideoDemuxData, ptr %80, i32 0, i32 1
  %82 = load i32, ptr %81, align 8, !tbaa !83
  %83 = sext i32 %82 to i64
  %84 = add nsw i64 %79, %83
  %85 = trunc i64 %84 to i32
  %86 = load ptr, ptr %10, align 8, !tbaa !26
  %87 = getelementptr inbounds nuw %struct.VideoDemuxData, ptr %86, i32 0, i32 3
  store i32 %85, ptr %87, align 8, !tbaa !38
  %88 = load i64, ptr %8, align 8, !tbaa !106
  %89 = load ptr, ptr %10, align 8, !tbaa !26
  %90 = getelementptr inbounds nuw %struct.VideoDemuxData, ptr %89, i32 0, i32 4
  store i64 %88, ptr %90, align 8, !tbaa !130
  store i32 0, ptr %5, align 4
  store i32 1, ptr %13, align 4
  br label %91

91:                                               ; preds = %68, %67, %47
  call void @llvm.lifetime.end.p0(i64 8, ptr %11) #12
  call void @llvm.lifetime.end.p0(i64 8, ptr %10) #12
  %92 = load i32, ptr %5, align 4
  ret i32 %92
}