; Function Attrs: nounwind uwtable
define internal range(i32 -1, 1) i32 @img_read_seek(ptr noundef readonly captures(none) %0, i32 %1, i64 noundef %2, i32 noundef %3) #0 {
  %5 = getelementptr inbounds nuw i8, ptr %0, i64 24
  %6 = load ptr, ptr %5, align 8, !tbaa !4
  %7 = getelementptr inbounds nuw i8, ptr %0, i64 48
  %8 = load ptr, ptr %7, align 8, !tbaa !98
  %9 = load ptr, ptr %8, align 8, !tbaa !99
  %10 = getelementptr inbounds nuw i8, ptr %6, i64 1196
  %11 = load i32, ptr %10, align 4, !tbaa !56
  %.not = icmp eq i32 %11, 0
  br i1 %.not, label %23, label %12

12:                                               ; preds = %4
  %13 = tail call i32 @av_index_search_timestamp(ptr noundef %9, i64 noundef %2, i32 noundef %3) #14
  %14 = icmp slt i32 %13, 0
  br i1 %14, label %44, label %15

15:                                               ; preds = %12
  %16 = getelementptr inbounds nuw i8, ptr %9, i64 320
  %17 = load ptr, ptr %16, align 8, !tbaa !127
  %18 = zext nneg i32 %13 to i64
  %19 = getelementptr inbounds nuw %struct.AVIndexEntry, ptr %17, i64 %18
  %20 = load i64, ptr %19, align 8, !tbaa !128
  %21 = trunc i64 %20 to i32
  %22 = getelementptr inbounds nuw i8, ptr %6, i64 16
  store i32 %21, ptr %22, align 8, !tbaa !31
  br label %44

23:                                               ; preds = %4
  %24 = icmp slt i64 %2, 0
  br i1 %24, label %44, label %25

25:                                               ; preds = %23
  %26 = getelementptr inbounds nuw i8, ptr %6, i64 1096
  %27 = load i32, ptr %26, align 8, !tbaa !101
  %.not24 = icmp eq i32 %27, 0
  %28 = getelementptr inbounds nuw i8, ptr %6, i64 12
  %29 = load i32, ptr %28, align 4, !tbaa !78
  %30 = getelementptr inbounds nuw i8, ptr %6, i64 8
  %31 = load i32, ptr %30, align 8, !tbaa !77
  br i1 %.not24, label %32, label %._crit_edge

32:                                               ; preds = %25
  %33 = sub nsw i32 %29, %31
  %34 = sext i32 %33 to i64
  %35 = icmp sgt i64 %2, %34
  br i1 %35, label %44, label %._crit_edge

._crit_edge:                                      ; preds = %25, %32
  %36 = add i32 %29, 1
  %37 = sub i32 %36, %31
  %38 = sext i32 %37 to i64
  %39 = srem i64 %2, %38
  %40 = trunc nuw nsw i64 %39 to i32
  %41 = add i32 %31, %40
  %42 = getelementptr inbounds nuw i8, ptr %6, i64 16
  store i32 %41, ptr %42, align 8, !tbaa !31
  %43 = getelementptr inbounds nuw i8, ptr %6, i64 24
  store i64 %2, ptr %43, align 8, !tbaa !118
  br label %44

44:                                               ; preds = %23, %32, %15, %12, %._crit_edge
  %.1 = phi i32 [ 0, %._crit_edge ], [ 0, %15 ], [ -1, %12 ], [ -1, %32 ], [ -1, %23 ]
  ret i32 %.1
}